; Function Attrs: mustprogress nofree norecurse nosync nounwind willreturn memory(argmem: read) uwtable
define internal noundef zeroext i1 @RemoveSupercededWindowEvents(ptr noundef readonly captures(none) %0, ptr noundef readonly captures(none) %1) #3 {
  %3 = load i32, ptr %1, align 8
  %4 = load i32, ptr %0, align 8
  %5 = icmp eq i32 %3, %4
  br i1 %5, label %6, label %12

6:                                                ; preds = %2
  %7 = getelementptr inbounds nuw i8, ptr %1, i64 16
  %8 = load i32, ptr %7, align 8
  %9 = getelementptr inbounds nuw i8, ptr %0, i64 16
  %10 = load i32, ptr %9, align 8
  %11 = icmp eq i32 %8, %10
  br i1 %11, label %13, label %12

12:                                               ; preds = %6, %2
  br label %13

13:                                               ; preds = %6, %12
  %.0 = phi i1 [ true, %12 ], [ false, %6 ]
  ret i1 %.0
}